target datalayout = "e-m:e-p270:32:32-p271:32:32-p272:64:64-i64:64-i128:128-f80:128-n8:16:32:64-S128"
target triple = "x86_64-pc-linux-gnu"

%"class.Ipopt::Ma57TSolverInterface" = type { %"class.Ipopt::SparseSymLinearSolverInterface.base", %"class.Ipopt::SmartPtr", ptr, ptr, ptr, ptr, ptr, i32, i32, i32, i8, i8, i8, double, double, double, i8, [5 x double], [20 x i32], [40 x i32], [20 x double], i32, ptr, ptr, ptr, i32, ptr, i32, ptr }
%"class.Ipopt::SparseSymLinearSolverInterface.base" = type { %"class.Ipopt::AlgorithmStrategyObject.base" }
%"class.Ipopt::AlgorithmStrategyObject.base" = type <{ %"class.Ipopt::ReferencedObject.base", [4 x i8], %"class.Ipopt::SmartPtr.0", %"class.Ipopt::SmartPtr.1", %"class.Ipopt::SmartPtr.2", %"class.Ipopt::SmartPtr.3", i8 }>
%"class.Ipopt::ReferencedObject.base" = type <{ ptr, i32 }>
%"class.Ipopt::SmartPtr.0" = type { ptr }
%"class.Ipopt::SmartPtr.1" = type { ptr }
%"class.Ipopt::SmartPtr.2" = type { ptr }
%"class.Ipopt::SmartPtr.3" = type { ptr }
%"class.Ipopt::SmartPtr" = type { ptr }
%"class.std::__cxx11::basic_string" = type { %"struct.std::__cxx11::basic_string<char>::_Alloc_hider", i64, %union.anon }
%"struct.std::__cxx11::basic_string<char>::_Alloc_hider" = type { ptr }
%union.anon = type { i64, [8 x i8] }
%"class.Ipopt::AlgorithmStrategyObject" = type <{ %"class.Ipopt::ReferencedObject.base", [4 x i8], %"class.Ipopt::SmartPtr.0", %"class.Ipopt::SmartPtr.1", %"class.Ipopt::SmartPtr.2", %"class.Ipopt::SmartPtr.3", i8, [7 x i8] }>
%"class.Ipopt::IpoptData" = type { %"class.Ipopt::ReferencedObject.base", %"class.Ipopt::SmartPtr.20", %"class.Ipopt::SmartPtr.20", %"class.Ipopt::SmartPtr.21", %"class.Ipopt::SmartPtr.20", i8, %"class.Ipopt::SmartPtr.20", i8, i32, double, i8, double, i8, i8, i8, double, i8, i8, double, double, i8, double, i32, i8, %"class.std::__cxx11::basic_string", double, i32, %"class.Ipopt::SmartPtr.22", %"class.Ipopt::TimingStatistics", %"class.Ipopt::SmartPtr.23", double, double, double, double }
%"class.Ipopt::SmartPtr.21" = type { ptr }
%"class.Ipopt::SmartPtr.20" = type { ptr }
%"class.Ipopt::SmartPtr.22" = type { ptr }
%"class.Ipopt::TimingStatistics" = type { %"class.Ipopt::ReferencedObject.base", [4 x i8], %"class.Ipopt::TimedTask", %"class.Ipopt::TimedTask", %"class.Ipopt::TimedTask", %"class.Ipopt::TimedTask", %"class.Ipopt::TimedTask", %"class.Ipopt::TimedTask", %"class.Ipopt::TimedTask", %"class.Ipopt::TimedTask", %"class.Ipopt::TimedTask", %"class.Ipopt::TimedTask", %"class.Ipopt::TimedTask", %"class.Ipopt::TimedTask", %"class.Ipopt::TimedTask", %"class.Ipopt::TimedTask", %"class.Ipopt::TimedTask", %"class.Ipopt::TimedTask", %"class.Ipopt::TimedTask", %"class.Ipopt::TimedTask", %"class.Ipopt::TimedTask", %"class.Ipopt::TimedTask", %"class.Ipopt::TimedTask", %"class.Ipopt::TimedTask", %"class.Ipopt::TimedTask", %"class.Ipopt::TimedTask", %"class.Ipopt::TimedTask", %"class.Ipopt::TimedTask", %"class.Ipopt::TimedTask", %"class.Ipopt::TimedTask", %"class.Ipopt::TimedTask", %"class.Ipopt::TimedTask", %"class.Ipopt::TimedTask", %"class.Ipopt::TimedTask", %"class.Ipopt::TimedTask", %"class.Ipopt::TimedTask", %"class.Ipopt::TimedTask" }
%"class.Ipopt::TimedTask" = type <{ double, double, double, double, double, double, i8, i8, i8, [5 x i8] }>
%"class.Ipopt::SmartPtr.23" = type { ptr }

@.str.82 = private unnamed_addr constant [23 x i8] c"Error in MA57CD:  %d.\0A\00", align 1

; Function Attrs: mustprogress nounwind uwtable
define linkonce_odr noundef zeroext i1 @_ZN5Ipopt6IsNullINS_9IpoptDataEEEbRKNS_8SmartPtrIT_EE(ptr noundef nonnull align 8 dereferenceable(8) %0) #5 comdat {
  %2 = alloca ptr, align 8
  store ptr %0, ptr %2, align 8, !tbaa !120
  %3 = load ptr, ptr %2, align 8, !tbaa !120
  %4 = getelementptr inbounds nuw %"class.Ipopt::SmartPtr.2", ptr %3, i32 0, i32 0
  %5 = load ptr, ptr %4, align 8, !tbaa !122
  %6 = icmp eq ptr %5, null
  ret i1 %6
}

; Function Attrs: mustprogress nounwind uwtable
define linkonce_odr noundef nonnull align 8 dereferenceable(40) ptr @_ZNK5Ipopt8SmartPtrIKNS_10JournalistEEdeEv(ptr noundef nonnull align 8 dereferenceable(8) %0) #5 comdat align 2 {
  %2 = alloca ptr, align 8
  store ptr %0, ptr %2, align 8, !tbaa !114
  %3 = load ptr, ptr %2, align 8
  %4 = getelementptr inbounds nuw %"class.Ipopt::SmartPtr.0", ptr %3, i32 0, i32 0
  %5 = load ptr, ptr %4, align 8, !tbaa !116
  ret ptr %5
}

; Function Attrs: mustprogress nounwind uwtable
define linkonce_odr noundef nonnull align 8 dereferenceable(2232) ptr @_ZNK5Ipopt8SmartPtrINS_9IpoptDataEEdeEv(ptr noundef nonnull align 8 dereferenceable(8) %0) #5 comdat align 2 {
  %2 = alloca ptr, align 8
  store ptr %0, ptr %2, align 8, !tbaa !120
  %3 = load ptr, ptr %2, align 8
  %4 = getelementptr inbounds nuw %"class.Ipopt::SmartPtr.2", ptr %3, i32 0, i32 0
  %5 = load ptr, ptr %4, align 8, !tbaa !122
  ret ptr %5
}

; Function Attrs: mustprogress uwtable
define linkonce_odr noundef zeroext i1 @_ZN5Ipopt7IsValidINS_9IpoptDataEEEbRKNS_8SmartPtrIT_EE(ptr noundef nonnull align 8 dereferenceable(8) %0) #4 comdat {
  %2 = alloca ptr, align 8
  store ptr %0, ptr %2, align 8, !tbaa !120
  %3 = load ptr, ptr %2, align 8, !tbaa !120
  %4 = call noundef zeroext i1 @_ZN5Ipopt6IsNullINS_9IpoptDataEEEbRKNS_8SmartPtrIT_EE(ptr noundef nonnull align 8 dereferenceable(8) %3)
  %5 = xor i1 %4, true
  ret i1 %5
}

; Function Attrs: mustprogress uwtable
define linkonce_odr void @_ZN5Ipopt9TimedTask3EndEv(ptr noundef nonnull align 8 dereferenceable(51) %0) #4 comdat align 2 {
  %2 = alloca ptr, align 8
  store ptr %0, ptr %2, align 8, !tbaa !96
  %3 = load ptr, ptr %2, align 8
  %4 = getelementptr inbounds nuw %"class.Ipopt::TimedTask", ptr %3, i32 0, i32 6
  %5 = load i8, ptr %4, align 8, !tbaa !98, !range !70, !noundef !71
  %6 = trunc i8 %5 to i1
  br i1 %6, label %8, label %7

7:                                                ; preds = %1
  br label %32

8:                                                ; preds = %1
  %9 = getelementptr inbounds nuw %"class.Ipopt::TimedTask", ptr %3, i32 0, i32 8
  store i8 1, ptr %9, align 2, !tbaa !100
  %10 = getelementptr inbounds nuw %"class.Ipopt::TimedTask", ptr %3, i32 0, i32 7
  store i8 0, ptr %10, align 1, !tbaa !101
  %11 = call noundef double @_ZN5Ipopt7CpuTimeEv()
  %12 = getelementptr inbounds nuw %"class.Ipopt::TimedTask", ptr %3, i32 0, i32 0
  %13 = load double, ptr %12, align 8, !tbaa !102
  %14 = fsub double %11, %13
  %15 = getelementptr inbounds nuw %"class.Ipopt::TimedTask", ptr %3, i32 0, i32 1
  %16 = load double, ptr %15, align 8, !tbaa !105
  %17 = fadd double %16, %14
  store double %17, ptr %15, align 8, !tbaa !105
  %18 = call noundef double @_ZN5Ipopt7SysTimeEv()
  %19 = getelementptr inbounds nuw %"class.Ipopt::TimedTask", ptr %3, i32 0, i32 2
  %20 = load double, ptr %19, align 8, !tbaa !103
  %21 = fsub double %18, %20
  %22 = getelementptr inbounds nuw %"class.Ipopt::TimedTask", ptr %3, i32 0, i32 3
  %23 = load double, ptr %22, align 8, !tbaa !106
  %24 = fadd double %23, %21
  store double %24, ptr %22, align 8, !tbaa !106
  %25 = call noundef double @_ZN5Ipopt13WallclockTimeEv()
  %26 = getelementptr inbounds nuw %"class.Ipopt::TimedTask", ptr %3, i32 0, i32 4
  %27 = load double, ptr %26, align 8, !tbaa !104
  %28 = fsub double %25, %27
  %29 = getelementptr inbounds nuw %"class.Ipopt::TimedTask", ptr %3, i32 0, i32 5
  %30 = load double, ptr %29, align 8, !tbaa !107
  %31 = fadd double %30, %28
  store double %31, ptr %29, align 8, !tbaa !107
  br label %32

32:                                               ; preds = %8, %7
  ret void
}

; Function Attrs: mustprogress uwtable
define linkonce_odr noundef nonnull align 8 dereferenceable(40) ptr @_ZNK5Ipopt23AlgorithmStrategyObject5JnlstEv(ptr noundef nonnull align 8 dereferenceable(49) %0) #4 comdat align 2 {
  %2 = alloca ptr, align 8
  store ptr %0, ptr %2, align 8, !tbaa !91
  %3 = load ptr, ptr %2, align 8
  %4 = getelementptr inbounds nuw %"class.Ipopt::AlgorithmStrategyObject", ptr %3, i32 0, i32 2
  %5 = call noundef nonnull align 8 dereferenceable(40) ptr @_ZNK5Ipopt8SmartPtrIKNS_10JournalistEEdeEv(ptr noundef nonnull align 8 dereferenceable(8) %4)
  ret ptr %5
}

; Function Attrs: mustprogress uwtable
define linkonce_odr void @_ZN5Ipopt9TimedTask5StartEv(ptr noundef nonnull align 8 dereferenceable(51) %0) #4 comdat align 2 {
  %2 = alloca ptr, align 8
  store ptr %0, ptr %2, align 8, !tbaa !96
  %3 = load ptr, ptr %2, align 8
  %4 = getelementptr inbounds nuw %"class.Ipopt::TimedTask", ptr %3, i32 0, i32 6
  %5 = load i8, ptr %4, align 8, !tbaa !98, !range !70, !noundef !71
  %6 = trunc i8 %5 to i1
  br i1 %6, label %8, label %7

7:                                                ; preds = %1
  br label %17

8:                                                ; preds = %1
  %9 = getelementptr inbounds nuw %"class.Ipopt::TimedTask", ptr %3, i32 0, i32 8
  store i8 0, ptr %9, align 2, !tbaa !100
  %10 = getelementptr inbounds nuw %"class.Ipopt::TimedTask", ptr %3, i32 0, i32 7
  store i8 1, ptr %10, align 1, !tbaa !101
  %11 = call noundef double @_ZN5Ipopt7CpuTimeEv()
  %12 = getelementptr inbounds nuw %"class.Ipopt::TimedTask", ptr %3, i32 0, i32 0
  store double %11, ptr %12, align 8, !tbaa !102
  %13 = call noundef double @_ZN5Ipopt7SysTimeEv()
  %14 = getelementptr inbounds nuw %"class.Ipopt::TimedTask", ptr %3, i32 0, i32 2
  store double %13, ptr %14, align 8, !tbaa !103
  %15 = call noundef double @_ZN5Ipopt13WallclockTimeEv()
  %16 = getelementptr inbounds nuw %"class.Ipopt::TimedTask", ptr %3, i32 0, i32 4
  store double %15, ptr %16, align 8, !tbaa !104
  br label %17

17:                                               ; preds = %8, %7
  ret void
}

; Function Attrs: mustprogress nounwind uwtable
define linkonce_odr noundef nonnull align 8 dereferenceable(51) ptr @_ZN5Ipopt16TimingStatistics21LinearSystemBackSolveEv(ptr noundef nonnull align 8 dereferenceable(1976) %0) #5 comdat align 2 {
  %2 = alloca ptr, align 8
  store ptr %0, ptr %2, align 8, !tbaa !94
  %3 = load ptr, ptr %2, align 8
  %4 = getelementptr inbounds nuw %"class.Ipopt::TimingStatistics", ptr %3, i32 0, i32 19
  ret ptr %4
}

; Function Attrs: mustprogress nounwind uwtable
define linkonce_odr noundef nonnull align 8 dereferenceable(1976) ptr @_ZN5Ipopt9IpoptData11TimingStatsEv(ptr noundef nonnull align 8 dereferenceable(2232) %0) #5 comdat align 2 {
  %2 = alloca ptr, align 8
  store ptr %0, ptr %2, align 8, !tbaa !93
  %3 = load ptr, ptr %2, align 8
  %4 = getelementptr inbounds nuw %"class.Ipopt::IpoptData", ptr %3, i32 0, i32 28
  ret ptr %4
}

; Function Attrs: mustprogress uwtable
define linkonce_odr noundef nonnull align 8 dereferenceable(2232) ptr @_ZNK5Ipopt23AlgorithmStrategyObject6IpDataEv(ptr noundef nonnull align 8 dereferenceable(49) %0) #4 comdat align 2 {
  %2 = alloca ptr, align 8
  store ptr %0, ptr %2, align 8, !tbaa !91
  %3 = load ptr, ptr %2, align 8
  %4 = getelementptr inbounds nuw %"class.Ipopt::AlgorithmStrategyObject", ptr %3, i32 0, i32 4
  %5 = call noundef nonnull align 8 dereferenceable(2232) ptr @_ZNK5Ipopt8SmartPtrINS_9IpoptDataEEdeEv(ptr noundef nonnull align 8 dereferenceable(8) %4)
  ret ptr %5
}

; Function Attrs: mustprogress uwtable
define linkonce_odr noundef zeroext i1 @_ZNK5Ipopt23AlgorithmStrategyObject10HaveIpDataEv(ptr noundef nonnull align 8 dereferenceable(49) %0) #4 comdat align 2 {
  %2 = alloca ptr, align 8
  store ptr %0, ptr %2, align 8, !tbaa !91
  %3 = load ptr, ptr %2, align 8
  %4 = getelementptr inbounds nuw %"class.Ipopt::AlgorithmStrategyObject", ptr %3, i32 0, i32 4
  %5 = call noundef zeroext i1 @_ZN5Ipopt7IsValidINS_9IpoptDataEEEbRKNS_8SmartPtrIT_EE(ptr noundef nonnull align 8 dereferenceable(8) %4)
  ret i1 %5
}

; Function Attrs: mustprogress uwtable
define noundef i32 @_ZN5Ipopt20Ma57TSolverInterface9BacksolveEiPd(ptr noundef nonnull align 8 dereferenceable(656) %0, i32 noundef %1, ptr noundef %2) #4 align 2 {
  %4 = alloca ptr, align 8
  %5 = alloca i32, align 4
  %6 = alloca ptr, align 8
  %7 = alloca i32, align 4
  %8 = alloca i32, align 4
  %9 = alloca i32, align 4
  %10 = alloca i32, align 4
  %11 = alloca i32, align 4
  %12 = alloca ptr, align 8
  store ptr %0, ptr %4, align 8, !tbaa !3
  store i32 %1, ptr %5, align 4, !tbaa !67
  store ptr %2, ptr %6, align 8, !tbaa !80
  %13 = load ptr, ptr %4, align 8
  %14 = call noundef zeroext i1 @_ZNK5Ipopt23AlgorithmStrategyObject10HaveIpDataEv(ptr noundef nonnull align 8 dereferenceable(49) %13)
  br i1 %14, label %15, label %19

15:                                               ; preds = %3
  %16 = call noundef nonnull align 8 dereferenceable(2232) ptr @_ZNK5Ipopt23AlgorithmStrategyObject6IpDataEv(ptr noundef nonnull align 8 dereferenceable(49) %13)
  %17 = call noundef nonnull align 8 dereferenceable(1976) ptr @_ZN5Ipopt9IpoptData11TimingStatsEv(ptr noundef nonnull align 8 dereferenceable(2232) %16)
  %18 = call noundef nonnull align 8 dereferenceable(51) ptr @_ZN5Ipopt16TimingStatistics21LinearSystemBackSolveEv(ptr noundef nonnull align 8 dereferenceable(1976) %17)
  call void @_ZN5Ipopt9TimedTask5StartEv(ptr noundef nonnull align 8 dereferenceable(51) %18)
  br label %19

19:                                               ; preds = %15, %3
  call void @llvm.lifetime.start.p0(i64 4, ptr %7) #3
  %20 = getelementptr inbounds nuw %"class.Ipopt::Ma57TSolverInterface", ptr %13, i32 0, i32 7
  %21 = load i32, ptr %20, align 8, !tbaa !36
  store i32 %21, ptr %7, align 4, !tbaa !67
  call void @llvm.lifetime.start.p0(i64 4, ptr %8) #3
  store i32 1, ptr %8, align 4, !tbaa !67
  call void @llvm.lifetime.start.p0(i64 4, ptr %9) #3
  %22 = load i32, ptr %5, align 4, !tbaa !67
  store i32 %22, ptr %9, align 4, !tbaa !67
  call void @llvm.lifetime.start.p0(i64 4, ptr %10) #3
  %23 = load i32, ptr %7, align 4, !tbaa !67
  store i32 %23, ptr %10, align 4, !tbaa !67
  call void @llvm.lifetime.start.p0(i64 4, ptr %11) #3
  call void @llvm.lifetime.start.p0(i64 8, ptr %12) #3
  %24 = load i32, ptr %7, align 4, !tbaa !67
  %25 = load i32, ptr %5, align 4, !tbaa !67
  %26 = mul nsw i32 %24, %25
  store i32 %26, ptr %11, align 4, !tbaa !67
  %27 = load i32, ptr %11, align 4, !tbaa !67
  %28 = sext i32 %27 to i64
  %29 = call { i64, i1 } @llvm.umul.with.overflow.i64(i64 %28, i64 8)
  %30 = extractvalue { i64, i1 } %29, 1
  %31 = extractvalue { i64, i1 } %29, 0
  %32 = select i1 %30, i64 -1, i64 %31
  %33 = call noalias noundef nonnull ptr @_Znam(i64 noundef %32) #20
  store ptr %33, ptr %12, align 8, !tbaa !80
  %34 = getelementptr inbounds nuw %"class.Ipopt::Ma57TSolverInterface", ptr %13, i32 0, i32 4
  %35 = load ptr, ptr %34, align 8, !tbaa !33
  %36 = getelementptr inbounds nuw %"class.Ipopt::Ma57TSolverInterface", ptr %13, i32 0, i32 24
  %37 = load ptr, ptr %36, align 8, !tbaa !43
  %38 = getelementptr inbounds nuw %"class.Ipopt::Ma57TSolverInterface", ptr %13, i32 0, i32 25
  %39 = getelementptr inbounds nuw %"class.Ipopt::Ma57TSolverInterface", ptr %13, i32 0, i32 26
  %40 = load ptr, ptr %39, align 8, !tbaa !44
  %41 = getelementptr inbounds nuw %"class.Ipopt::Ma57TSolverInterface", ptr %13, i32 0, i32 27
  %42 = load ptr, ptr %6, align 8, !tbaa !80
  %43 = load ptr, ptr %12, align 8, !tbaa !80
  %44 = getelementptr inbounds nuw %"class.Ipopt::Ma57TSolverInterface", ptr %13, i32 0, i32 23
  %45 = load ptr, ptr %44, align 8, !tbaa !42
  %46 = getelementptr inbounds nuw %"class.Ipopt::Ma57TSolverInterface", ptr %13, i32 0, i32 18
  %47 = getelementptr inbounds [20 x i32], ptr %46, i64 0, i64 0
  %48 = getelementptr inbounds nuw %"class.Ipopt::Ma57TSolverInterface", ptr %13, i32 0, i32 19
  %49 = getelementptr inbounds [40 x i32], ptr %48, i64 0, i64 0
  call void %35(ptr noundef %8, ptr noundef %7, ptr noundef %37, ptr noundef %38, ptr noundef %40, ptr noundef %41, ptr noundef %9, ptr noundef %42, ptr noundef %10, ptr noundef %43, ptr noundef %11, ptr noundef %45, ptr noundef %47, ptr noundef %49)
  %50 = getelementptr inbounds nuw %"class.Ipopt::Ma57TSolverInterface", ptr %13, i32 0, i32 19
  %51 = getelementptr inbounds [40 x i32], ptr %50, i64 0, i64 0
  %52 = load i32, ptr %51, align 8, !tbaa !67
  %53 = icmp ne i32 %52, 0
  br i1 %53, label %54, label %62

54:                                               ; preds = %19
  %55 = call noundef nonnull align 8 dereferenceable(40) ptr @_ZNK5Ipopt23AlgorithmStrategyObject5JnlstEv(ptr noundef nonnull align 8 dereferenceable(49) %13)
  %56 = getelementptr inbounds nuw %"class.Ipopt::Ma57TSolverInterface", ptr %13, i32 0, i32 19
  %57 = getelementptr inbounds [40 x i32], ptr %56, i64 0, i64 0
  %58 = load i32, ptr %57, align 8, !tbaa !67
  %59 = load ptr, ptr %55, align 8, !tbaa !10
  %60 = getelementptr inbounds ptr, ptr %59, i64 2
  %61 = load ptr, ptr %60, align 8
  call void (ptr, i32, i32, ptr, ...) %61(ptr noundef nonnull align 8 dereferenceable(40) %55, i32 noundef 1, i32 noundef 7, ptr noundef @.str.82, i32 noundef %58)
  br label %62

62:                                               ; preds = %54, %19
  %63 = load ptr, ptr %12, align 8, !tbaa !80
  %64 = icmp eq ptr %63, null
  br i1 %64, label %66, label %65

65:                                               ; preds = %62
  call void @_ZdaPv(ptr noundef %63) #17
  br label %66

66:                                               ; preds = %65, %62
  %67 = call noundef zeroext i1 @_ZNK5Ipopt23AlgorithmStrategyObject10HaveIpDataEv(ptr noundef nonnull align 8 dereferenceable(49) %13)
  br i1 %67, label %68, label %72

68:                                               ; preds = %66
  %69 = call noundef nonnull align 8 dereferenceable(2232) ptr @_ZNK5Ipopt23AlgorithmStrategyObject6IpDataEv(ptr noundef nonnull align 8 dereferenceable(49) %13)
  %70 = call noundef nonnull align 8 dereferenceable(1976) ptr @_ZN5Ipopt9IpoptData11TimingStatsEv(ptr noundef nonnull align 8 dereferenceable(2232) %69)
  %71 = call noundef nonnull align 8 dereferenceable(51) ptr @_ZN5Ipopt16TimingStatistics21LinearSystemBackSolveEv(ptr noundef nonnull align 8 dereferenceable(1976) %70)
  call void @_ZN5Ipopt9TimedTask3EndEv(ptr noundef nonnull align 8 dereferenceable(51) %71)
  br label %72

72:                                               ; preds = %68, %66
  call void @llvm.lifetime.end.p0(i64 8, ptr %12) #3
  call void @llvm.lifetime.end.p0(i64 4, ptr %11) #3
  call void @llvm.lifetime.end.p0(i64 4, ptr %10) #3
  call void @llvm.lifetime.end.p0(i64 4, ptr %9) #3
  call void @llvm.lifetime.end.p0(i64 4, ptr %8) #3
  call void @llvm.lifetime.end.p0(i64 4, ptr %7) #3
  ret i32 0
}