; Function Attrs: mustprogress uwtable
define noundef i32 @_ZN5Ipopt20Ma57TSolverInterface9BacksolveEiPd(ptr noundef nonnull align 8 dereferenceable(656) %0, i32 noundef %1, ptr noundef %2) local_unnamed_addr #6 align 2 {
  %4 = alloca i32, align 4
  %5 = alloca i32, align 4
  %6 = alloca i32, align 4
  %7 = alloca i32, align 4
  %8 = alloca i32, align 4
  %9 = getelementptr inbounds nuw i8, ptr %0, i64 32
  %10 = load ptr, ptr %9, align 8, !tbaa !38
  %.not5 = icmp eq ptr %10, null
  br i1 %.not5, label %_ZN5Ipopt9TimedTask5StartEv.exit, label %11

11:                                               ; preds = %3
  %12 = getelementptr inbounds nuw i8, ptr %10, i64 1232
  %13 = load i8, ptr %12, align 8, !tbaa !69, !range !64, !noundef !65
  %14 = trunc nuw i8 %13 to i1
  br i1 %14, label %15, label %_ZN5Ipopt9TimedTask5StartEv.exit

15:                                               ; preds = %11
  %16 = getelementptr inbounds nuw i8, ptr %10, i64 1184
  %17 = getelementptr inbounds nuw i8, ptr %10, i64 1234
  store i8 0, ptr %17, align 2, !tbaa !71
  %18 = getelementptr inbounds nuw i8, ptr %10, i64 1233
  store i8 1, ptr %18, align 1, !tbaa !72
  %19 = tail call noundef double @_ZN5Ipopt7CpuTimeEv()
  store double %19, ptr %16, align 8, !tbaa !73
  %20 = tail call noundef double @_ZN5Ipopt7SysTimeEv()
  %21 = getelementptr inbounds nuw i8, ptr %10, i64 1200
  store double %20, ptr %21, align 8, !tbaa !74
  %22 = tail call noundef double @_ZN5Ipopt13WallclockTimeEv()
  %23 = getelementptr inbounds nuw i8, ptr %10, i64 1216
  store double %22, ptr %23, align 8, !tbaa !75
  br label %_ZN5Ipopt9TimedTask5StartEv.exit

_ZN5Ipopt9TimedTask5StartEv.exit:                 ; preds = %15, %11, %3
  call void @llvm.lifetime.start.p0(i64 4, ptr nonnull %4) #25
  %24 = getelementptr inbounds nuw i8, ptr %0, i64 104
  %25 = load i32, ptr %24, align 8, !tbaa !67
  store i32 %25, ptr %4, align 4, !tbaa !61
  call void @llvm.lifetime.start.p0(i64 4, ptr nonnull %5) #25
  store i32 1, ptr %5, align 4, !tbaa !61
  call void @llvm.lifetime.start.p0(i64 4, ptr nonnull %6) #25
  store i32 %1, ptr %6, align 4, !tbaa !61
  call void @llvm.lifetime.start.p0(i64 4, ptr nonnull %7) #25
  store i32 %25, ptr %7, align 4, !tbaa !61
  call void @llvm.lifetime.start.p0(i64 4, ptr nonnull %8) #25
  %26 = mul nsw i32 %25, %1
  store i32 %26, ptr %8, align 4, !tbaa !61
  %27 = sext i32 %26 to i64
  %28 = icmp slt i32 %26, 0
  %29 = shl nsw i64 %27, 3
  %30 = select i1 %28, i64 -1, i64 %29
  %31 = tail call noalias noundef nonnull ptr @_Znam(i64 noundef %30) #27
  %32 = getelementptr inbounds nuw i8, ptr %0, i64 80
  %33 = load ptr, ptr %32, align 8, !tbaa !56
  %34 = getelementptr inbounds nuw i8, ptr %0, i64 616
  %35 = load ptr, ptr %34, align 8, !tbaa !34
  %36 = getelementptr inbounds nuw i8, ptr %0, i64 624
  %37 = getelementptr inbounds nuw i8, ptr %0, i64 632
  %38 = load ptr, ptr %37, align 8, !tbaa !32
  %39 = getelementptr inbounds nuw i8, ptr %0, i64 640
  %40 = getelementptr inbounds nuw i8, ptr %0, i64 608
  %41 = load ptr, ptr %40, align 8, !tbaa !35
  %42 = getelementptr inbounds nuw i8, ptr %0, i64 192
  %43 = getelementptr inbounds nuw i8, ptr %0, i64 272
  call void %33(ptr noundef nonnull %5, ptr noundef nonnull %4, ptr noundef %35, ptr noundef nonnull %36, ptr noundef %38, ptr noundef nonnull %39, ptr noundef nonnull %6, ptr noundef %2, ptr noundef nonnull %7, ptr noundef nonnull %31, ptr noundef nonnull %8, ptr noundef %41, ptr noundef nonnull %42, ptr noundef nonnull %43)
  %44 = load i32, ptr %43, align 8, !tbaa !61
  %.not = icmp eq i32 %44, 0
  br i1 %.not, label %51, label %45

45:                                               ; preds = %_ZN5Ipopt9TimedTask5StartEv.exit
  %46 = getelementptr inbounds nuw i8, ptr %0, i64 16
  %47 = load ptr, ptr %46, align 8, !tbaa !40
  %48 = load ptr, ptr %47, align 8, !tbaa !8
  %49 = getelementptr inbounds nuw i8, ptr %48, i64 16
  %50 = load ptr, ptr %49, align 8
  call void (ptr, i32, i32, ptr, ...) %50(ptr noundef nonnull align 8 dereferenceable(40) %47, i32 noundef 1, i32 noundef 7, ptr noundef nonnull @.str.82, i32 noundef %44)
  br label %51

51:                                               ; preds = %_ZN5Ipopt9TimedTask5StartEv.exit, %45
  call void @_ZdaPv(ptr noundef nonnull %31) #24
  %52 = load ptr, ptr %9, align 8, !tbaa !38
  %.not6 = icmp eq ptr %52, null
  br i1 %.not6, label %_ZN5Ipopt9TimedTask3EndEv.exit, label %53

53:                                               ; preds = %51
  %54 = getelementptr inbounds nuw i8, ptr %52, i64 1232
  %55 = load i8, ptr %54, align 8, !tbaa !69, !range !64, !noundef !65
  %56 = trunc nuw i8 %55 to i1
  br i1 %56, label %57, label %_ZN5Ipopt9TimedTask3EndEv.exit

57:                                               ; preds = %53
  %58 = getelementptr inbounds nuw i8, ptr %52, i64 1184
  %59 = getelementptr inbounds nuw i8, ptr %52, i64 1234
  store i8 1, ptr %59, align 2, !tbaa !71
  %60 = getelementptr inbounds nuw i8, ptr %52, i64 1233
  store i8 0, ptr %60, align 1, !tbaa !72
  %61 = call noundef double @_ZN5Ipopt7CpuTimeEv()
  %62 = load double, ptr %58, align 8, !tbaa !73
  %63 = fsub double %61, %62
  %64 = getelementptr inbounds nuw i8, ptr %52, i64 1192
  %65 = load double, ptr %64, align 8, !tbaa !81
  %66 = fadd double %65, %63
  store double %66, ptr %64, align 8, !tbaa !81
  %67 = call noundef double @_ZN5Ipopt7SysTimeEv()
  %68 = getelementptr inbounds nuw i8, ptr %52, i64 1200
  %69 = load double, ptr %68, align 8, !tbaa !74
  %70 = fsub double %67, %69
  %71 = getelementptr inbounds nuw i8, ptr %52, i64 1208
  %72 = load double, ptr %71, align 8, !tbaa !82
  %73 = fadd double %72, %70
  store double %73, ptr %71, align 8, !tbaa !82
  %74 = call noundef double @_ZN5Ipopt13WallclockTimeEv()
  %75 = getelementptr inbounds nuw i8, ptr %52, i64 1216
  %76 = load double, ptr %75, align 8, !tbaa !75
  %77 = fsub double %74, %76
  %78 = getelementptr inbounds nuw i8, ptr %52, i64 1224
  %79 = load double, ptr %78, align 8, !tbaa !83
  %80 = fadd double %79, %77
  store double %80, ptr %78, align 8, !tbaa !83
  br label %_ZN5Ipopt9TimedTask3EndEv.exit

_ZN5Ipopt9TimedTask3EndEv.exit:                   ; preds = %57, %53, %51
  call void @llvm.lifetime.end.p0(i64 4, ptr nonnull %8) #25
  call void @llvm.lifetime.end.p0(i64 4, ptr nonnull %7) #25
  call void @llvm.lifetime.end.p0(i64 4, ptr nonnull %6) #25
  call void @llvm.lifetime.end.p0(i64 4, ptr nonnull %5) #25
  call void @llvm.lifetime.end.p0(i64 4, ptr nonnull %4) #25
  ret i32 0
}